; Function Attrs: mustprogress nofree norecurse nosync nounwind memory(readwrite, inaccessiblemem: none) uwtable
define hidden void @_ZN2cv8ximgproc12segmentation44SelectiveSearchSegmentationStrategyColorImpl5mergeEii(ptr noundef nonnull readonly align 8 captures(none) dereferenceable(336) %0, i32 noundef %1, i32 noundef %2) unnamed_addr #9 align 2 {
  %4 = getelementptr inbounds nuw i8, ptr %0, i64 136
  %5 = load i32, ptr %4, align 8, !tbaa !27
  %6 = and i32 %5, 16384
  %.not.i = icmp eq i32 %6, 0
  br i1 %.not.i, label %7, label %_ZN2cv3Mat2atIiEERT_i.exit

7:                                                ; preds = %3
  %8 = getelementptr inbounds nuw i8, ptr %0, i64 200
  %9 = load ptr, ptr %8, align 8, !tbaa !72
  %10 = load i32, ptr %9, align 4, !tbaa !22
  %11 = icmp eq i32 %10, 1
  br i1 %11, label %_ZN2cv3Mat2atIiEERT_i.exit, label %12

12:                                               ; preds = %7
  %13 = getelementptr inbounds nuw i8, ptr %9, i64 4
  %14 = load i32, ptr %13, align 4, !tbaa !22
  %15 = icmp eq i32 %14, 1
  br i1 %15, label %16, label %25

16:                                               ; preds = %12
  %17 = getelementptr inbounds nuw i8, ptr %0, i64 152
  %18 = load ptr, ptr %17, align 8, !tbaa !55
  %19 = getelementptr inbounds nuw i8, ptr %0, i64 208
  %20 = load ptr, ptr %19, align 8, !tbaa !56
  %21 = load i64, ptr %20, align 8, !tbaa !57
  %22 = sext i32 %1 to i64
  %23 = mul i64 %21, %22
  %24 = getelementptr inbounds nuw i8, ptr %18, i64 %23
  br label %47

25:                                               ; preds = %12
  %26 = getelementptr inbounds nuw i8, ptr %0, i64 148
  %27 = load i32, ptr %26, align 4, !tbaa !73
  %28 = sdiv i32 %1, %27
  %29 = mul nsw i32 %28, %27
  %.recomposed = srem i32 %1, %27
  %30 = getelementptr inbounds nuw i8, ptr %0, i64 152
  %31 = load ptr, ptr %30, align 8, !tbaa !55
  %32 = getelementptr inbounds nuw i8, ptr %0, i64 208
  %33 = load ptr, ptr %32, align 8, !tbaa !56
  %34 = load i64, ptr %33, align 8, !tbaa !57
  %35 = sext i32 %28 to i64
  %36 = mul i64 %34, %35
  %37 = getelementptr inbounds nuw i8, ptr %31, i64 %36
  %38 = sext i32 %.recomposed to i64
  %39 = getelementptr inbounds i32, ptr %37, i64 %38
  br label %47

_ZN2cv3Mat2atIiEERT_i.exit:                       ; preds = %7, %3
  %40 = getelementptr inbounds nuw i8, ptr %0, i64 152
  %41 = load ptr, ptr %40, align 8, !tbaa !55
  %42 = sext i32 %1 to i64
  %43 = getelementptr inbounds i32, ptr %41, i64 %42
  %44 = load i32, ptr %43, align 4, !tbaa !22
  %45 = sext i32 %2 to i64
  %46 = getelementptr inbounds i32, ptr %41, i64 %45
  br label %_ZN2cv3Mat2atIiEERT_i.exit22

47:                                               ; preds = %25, %16
  %.ph = phi ptr [ %18, %16 ], [ %31, %25 ]
  %.in.ph = phi ptr [ %24, %16 ], [ %39, %25 ]
  %48 = load i32, ptr %.in.ph, align 4, !tbaa !22
  %49 = getelementptr inbounds nuw i8, ptr %9, i64 4
  %50 = load i32, ptr %49, align 4, !tbaa !22
  %51 = icmp eq i32 %50, 1
  br i1 %51, label %52, label %59

52:                                               ; preds = %47
  %53 = getelementptr inbounds nuw i8, ptr %0, i64 208
  %54 = load ptr, ptr %53, align 8, !tbaa !56
  %55 = load i64, ptr %54, align 8, !tbaa !57
  %56 = sext i32 %2 to i64
  %57 = mul i64 %55, %56
  %58 = getelementptr inbounds nuw i8, ptr %.ph, i64 %57
  br label %_ZN2cv3Mat2atIiEERT_i.exit22

59:                                               ; preds = %47
  %60 = getelementptr inbounds nuw i8, ptr %0, i64 148
  %61 = load i32, ptr %60, align 4, !tbaa !73
  %62 = sdiv i32 %2, %61
  %63 = mul nsw i32 %62, %61
  %.recomposed30 = srem i32 %2, %61
  %64 = getelementptr inbounds nuw i8, ptr %0, i64 208
  %65 = load ptr, ptr %64, align 8, !tbaa !56
  %66 = load i64, ptr %65, align 8, !tbaa !57
  %67 = sext i32 %62 to i64
  %68 = mul i64 %66, %67
  %69 = getelementptr inbounds nuw i8, ptr %.ph, i64 %68
  %70 = sext i32 %.recomposed30 to i64
  %71 = getelementptr inbounds i32, ptr %69, i64 %70
  %.pre = sext i32 %2 to i64
  br label %_ZN2cv3Mat2atIiEERT_i.exit22

_ZN2cv3Mat2atIiEERT_i.exit22:                     ; preds = %_ZN2cv3Mat2atIiEERT_i.exit, %52, %59
  %.pre-phi = phi i64 [ %45, %_ZN2cv3Mat2atIiEERT_i.exit ], [ %56, %52 ], [ %.pre, %59 ]
  %72 = phi i32 [ %44, %_ZN2cv3Mat2atIiEERT_i.exit ], [ %48, %52 ], [ %48, %59 ]
  %.0.i21 = phi ptr [ %46, %_ZN2cv3Mat2atIiEERT_i.exit ], [ %58, %52 ], [ %71, %59 ]
  %73 = getelementptr inbounds nuw i8, ptr %0, i64 56
  %74 = load ptr, ptr %73, align 8, !tbaa !55
  %75 = getelementptr inbounds nuw i8, ptr %0, i64 112
  %76 = load ptr, ptr %75, align 8, !tbaa !56
  %77 = load i64, ptr %76, align 8, !tbaa !57
  %78 = sext i32 %1 to i64
  %79 = mul i64 %77, %78
  %80 = getelementptr inbounds nuw i8, ptr %74, i64 %79
  %81 = mul i64 %77, %.pre-phi
  %82 = getelementptr inbounds nuw i8, ptr %74, i64 %81
  %83 = getelementptr inbounds nuw i8, ptr %0, i64 232
  %84 = load i32, ptr %83, align 8, !tbaa !36
  %85 = icmp sgt i32 %84, 0
  br i1 %85, label %.lr.ph, label %._crit_edge

.lr.ph:                                           ; preds = %_ZN2cv3Mat2atIiEERT_i.exit22
  %86 = load i32, ptr %.0.i21, align 4, !tbaa !22
  %87 = sitofp i32 %72 to float
  %88 = sitofp i32 %86 to float
  %89 = add nsw i32 %86, %72
  %90 = sitofp i32 %89 to float
  %wide.trip.count = zext nneg i32 %84 to i64
  br label %91

._crit_edge:                                      ; preds = %91, %_ZN2cv3Mat2atIiEERT_i.exit22
  ret void

91:                                               ; preds = %.lr.ph, %91
  %indvars.iv = phi i64 [ 0, %.lr.ph ], [ %indvars.iv.next, %91 ]
  %92 = getelementptr inbounds nuw float, ptr %80, i64 %indvars.iv
  %93 = load float, ptr %92, align 4, !tbaa !63
  %94 = getelementptr inbounds nuw float, ptr %82, i64 %indvars.iv
  %95 = load float, ptr %94, align 4, !tbaa !63
  %96 = fmul float %95, %88
  %97 = tail call float @llvm.fmuladd.f32(float %93, float %87, float %96)
  %98 = fdiv float %97, %90
  store float %98, ptr %92, align 4, !tbaa !63
  store float %98, ptr %94, align 4, !tbaa !63
  %indvars.iv.next = add nuw nsw i64 %indvars.iv, 1
  %exitcond.not = icmp eq i64 %indvars.iv.next, %wide.trip.count
  br i1 %exitcond.not, label %._crit_edge, label %91, !llvm.loop !74
}